target datalayout = "e-m:e-p270:32:32-p271:32:32-p272:64:64-i64:64-i128:128-f80:128-n8:16:32:64-S128"
target triple = "x86_64-unknown-linux-gnu"

%class.ref_vector = type { %class.ref_vector_core }
%class.ref_vector_core = type { %class.ref_manager_wrapper, %class.ptr_vector }
%class.ref_manager_wrapper = type { ptr }
%class.ptr_vector = type { %class.vector }
%class.vector = type { ptr }
%class.obj_ref = type { ptr, ptr }
%class.ast = type { i32, i24, i32, i32 }
%class.svector.25 = type { %class.vector.26 }
%class.vector.26 = type { ptr }
%"struct.spacer::subs_rewriter_cfg" = type { ptr, %class.obj_ref }
%class.rewriter_tpl = type { %class.rewriter_core, ptr, i32, %class.ptr_vector, %class.var_shifter, %class.inv_var_shifter, %class.obj_ref, %class.obj_ref.59, %class.obj_ref.59, %class.svector.25 }
%class.rewriter_core = type { ptr, ptr, i8, i8, %class.ptr_vector.45, ptr, %class.svector.47, %class.ref_vector, %class.ptr_vector.45, ptr, %class.ref_vector.49, %class.obj_hashtable, ptr, i32, %class.svector.57 }
%class.svector.47 = type { %class.vector.48 }
%class.vector.48 = type { ptr }
%class.ptr_vector.45 = type { %class.vector.46 }
%class.vector.46 = type { ptr }
%class.ref_vector.49 = type { %class.ref_vector_core.50 }
%class.ref_vector_core.50 = type { %class.ref_manager_wrapper.51, %class.ptr_vector.52 }
%class.ref_manager_wrapper.51 = type { ptr }
%class.ptr_vector.52 = type { %class.vector.53 }
%class.vector.53 = type { ptr }
%class.obj_hashtable = type { %class.core_hashtable.base.56, [4 x i8] }
%class.core_hashtable.base.56 = type <{ ptr, i32, i32, i32 }>
%class.svector.57 = type { %class.vector.58 }
%class.vector.58 = type { ptr }
%class.var_shifter = type <{ %class.var_shifter_core, i32, i32, i32, [4 x i8] }>
%class.var_shifter_core = type { %class.rewriter_core }
%class.inv_var_shifter = type <{ %class.var_shifter_core, i32, [4 x i8] }>
%class.obj_ref.59 = type { ptr, ptr }

@_ZN12rewriter_tplIN6spacer17subs_rewriter_cfgEEC1ER11ast_managerbRS1_ = weak_odr hidden unnamed_addr alias void (ptr, ptr, i1, ptr), ptr @_ZN12rewriter_tplIN6spacer17subs_rewriter_cfgEEC2ER11ast_managerbRS1_
@_ZN12rewriter_tplIN6spacer17subs_rewriter_cfgEED1Ev = weak_odr hidden unnamed_addr alias void (ptr), ptr @_ZN12rewriter_tplIN6spacer17subs_rewriter_cfgEED2Ev

; Function Attrs: mustprogress nounwind uwtable
define linkonce_odr hidden void @_ZN3ast7inc_refEv(ptr noundef nonnull align 4 dereferenceable(16) %this) #5 comdat align 2 {
entry:
  %this.addr = alloca ptr, align 8
  store ptr %this, ptr %this.addr, align 8
  %this1 = load ptr, ptr %this.addr, align 8
  %m_ref_count = getelementptr inbounds %class.ast, ptr %this1, i32 0, i32 2
  %0 = load i32, ptr %m_ref_count, align 4
  %inc = add i32 %0, 1
  store i32 %inc, ptr %m_ref_count, align 4
  ret void
}

; Function Attrs: mustprogress uwtable
define linkonce_odr hidden void @_ZN11ast_manager7inc_refEP3ast(ptr noundef nonnull align 8 dereferenceable(976) %this, ptr noundef %n) #4 comdat align 2 {
entry:
  %this.addr = alloca ptr, align 8
  %n.addr = alloca ptr, align 8
  store ptr %this, ptr %this.addr, align 8
  store ptr %n, ptr %n.addr, align 8
  %0 = load ptr, ptr %n.addr, align 8
  %tobool = icmp ne ptr %0, null
  br i1 %tobool, label %if.then, label %if.end

if.then:                                          ; preds = %entry
  %1 = load ptr, ptr %n.addr, align 8
  call void @_ZN3ast7inc_refEv(ptr noundef nonnull align 4 dereferenceable(16) %1)
  br label %if.end

if.end:                                           ; preds = %if.then, %entry
  ret void
}

; Function Attrs: mustprogress uwtable
define linkonce_odr hidden void @_ZN7obj_refI4expr11ast_managerE7inc_refEv(ptr noundef nonnull align 8 dereferenceable(16) %this) #4 comdat align 2 {
entry:
  %this.addr = alloca ptr, align 8
  store ptr %this, ptr %this.addr, align 8
  %this1 = load ptr, ptr %this.addr, align 8
  %m_obj = getelementptr inbounds %class.obj_ref, ptr %this1, i32 0, i32 0
  %0 = load ptr, ptr %m_obj, align 8
  %tobool = icmp ne ptr %0, null
  br i1 %tobool, label %if.then, label %if.end

if.then:                                          ; preds = %entry
  %m_manager = getelementptr inbounds %class.obj_ref, ptr %this1, i32 0, i32 1
  %1 = load ptr, ptr %m_manager, align 8
  %m_obj2 = getelementptr inbounds %class.obj_ref, ptr %this1, i32 0, i32 0
  %2 = load ptr, ptr %m_obj2, align 8
  call void @_ZN11ast_manager7inc_refEP3ast(ptr noundef nonnull align 8 dereferenceable(976) %1, ptr noundef %2)
  br label %if.end

if.end:                                           ; preds = %if.then, %entry
  ret void
}

; Function Attrs: mustprogress uwtable
define linkonce_odr hidden void @_ZN7obj_refI4expr11ast_managerEC2EPS0_RS1_(ptr noundef nonnull align 8 dereferenceable(16) %this, ptr noundef %n, ptr noundef nonnull align 8 dereferenceable(976) %m) unnamed_addr #4 comdat align 2 {
entry:
  %this.addr = alloca ptr, align 8
  %n.addr = alloca ptr, align 8
  %m.addr = alloca ptr, align 8
  store ptr %this, ptr %this.addr, align 8
  store ptr %n, ptr %n.addr, align 8
  store ptr %m, ptr %m.addr, align 8
  %this1 = load ptr, ptr %this.addr, align 8
  %m_obj = getelementptr inbounds %class.obj_ref, ptr %this1, i32 0, i32 0
  %0 = load ptr, ptr %n.addr, align 8
  store ptr %0, ptr %m_obj, align 8
  %m_manager = getelementptr inbounds %class.obj_ref, ptr %this1, i32 0, i32 1
  %1 = load ptr, ptr %m.addr, align 8
  store ptr %1, ptr %m_manager, align 8
  call void @_ZN7obj_refI4expr11ast_managerE7inc_refEv(ptr noundef nonnull align 8 dereferenceable(16) %this1)
  ret void
}

; Function Attrs: mustprogress uwtable
define weak_odr hidden void @_ZN12rewriter_tplIN6spacer17subs_rewriter_cfgEEclEP4exprR7obj_refIS3_11ast_managerE(ptr noundef nonnull align 8 dereferenceable(536) %this, ptr noundef %t, ptr noundef nonnull align 8 dereferenceable(16) %result) #4 comdat align 2 {
entry:
  %this.addr = alloca ptr, align 8
  %t.addr = alloca ptr, align 8
  %result.addr = alloca ptr, align 8
  store ptr %this, ptr %this.addr, align 8
  store ptr %t, ptr %t.addr, align 8
  store ptr %result, ptr %result.addr, align 8
  %this1 = load ptr, ptr %this.addr, align 8
  %0 = load ptr, ptr %t.addr, align 8
  %1 = load ptr, ptr %result.addr, align 8
  %m_pr = getelementptr inbounds %class.rewriter_tpl, ptr %this1, i32 0, i32 7
  call void @_ZN12rewriter_tplIN6spacer17subs_rewriter_cfgEEclEP4exprR7obj_refIS3_11ast_managerERS5_I3appS6_E(ptr noundef nonnull align 8 dereferenceable(536) %this1, ptr noundef %0, ptr noundef nonnull align 8 dereferenceable(16) %1, ptr noundef nonnull align 8 dereferenceable(16) %m_pr)
  ret void
}

; Function Attrs: mustprogress uwtable
define linkonce_odr hidden void @_ZN6spacer17subs_rewriter_cfgC2ER11ast_managerP4expr(ptr noundef nonnull align 8 dereferenceable(24) %this, ptr noundef nonnull align 8 dereferenceable(976) %manager, ptr noundef %c) unnamed_addr #4 comdat align 2 {
entry:
  %this.addr = alloca ptr, align 8
  %manager.addr = alloca ptr, align 8
  %c.addr = alloca ptr, align 8
  store ptr %this, ptr %this.addr, align 8
  store ptr %manager, ptr %manager.addr, align 8
  store ptr %c, ptr %c.addr, align 8
  %this1 = load ptr, ptr %this.addr, align 8
  %m = getelementptr inbounds %"struct.spacer::subs_rewriter_cfg", ptr %this1, i32 0, i32 0
  %0 = load ptr, ptr %manager.addr, align 8
  store ptr %0, ptr %m, align 8
  %m_c = getelementptr inbounds %"struct.spacer::subs_rewriter_cfg", ptr %this1, i32 0, i32 1
  %1 = load ptr, ptr %c.addr, align 8
  %m2 = getelementptr inbounds %"struct.spacer::subs_rewriter_cfg", ptr %this1, i32 0, i32 0
  %2 = load ptr, ptr %m2, align 8
  call void @_ZN7obj_refI4expr11ast_managerEC2EPS0_RS1_(ptr noundef nonnull align 8 dereferenceable(16) %m_c, ptr noundef %1, ptr noundef nonnull align 8 dereferenceable(976) %2)
  ret void
}

; Function Attrs: mustprogress uwtable
define hidden void @_ZN6spacer20naive_convex_closure24substitute_vars_by_constER11ast_managerP4exprS4_R7obj_refIS3_S1_E(ptr noundef nonnull align 8 dereferenceable(976) %m, ptr noundef %t, ptr noundef %c, ptr noundef nonnull align 8 dereferenceable(16) %res) #4 align 2 personality ptr @__gxx_personality_v0 {
entry:
  %m.addr = alloca ptr, align 8
  %t.addr = alloca ptr, align 8
  %c.addr = alloca ptr, align 8
  %res.addr = alloca ptr, align 8
  %subs_cfg = alloca %"struct.spacer::subs_rewriter_cfg", align 8
  %subs_rw = alloca %class.rewriter_tpl, align 8
  %exn.slot = alloca ptr, align 8
  %ehselector.slot = alloca i32, align 4
  store ptr %m, ptr %m.addr, align 8
  store ptr %t, ptr %t.addr, align 8
  store ptr %c, ptr %c.addr, align 8
  store ptr %res, ptr %res.addr, align 8
  %0 = load ptr, ptr %m.addr, align 8
  %1 = load ptr, ptr %c.addr, align 8
  call void @_ZN6spacer17subs_rewriter_cfgC2ER11ast_managerP4expr(ptr noundef nonnull align 8 dereferenceable(24) %subs_cfg, ptr noundef nonnull align 8 dereferenceable(976) %0, ptr noundef %1)
  %2 = load ptr, ptr %m.addr, align 8
  invoke void @_ZN12rewriter_tplIN6spacer17subs_rewriter_cfgEEC1ER11ast_managerbRS1_(ptr noundef nonnull align 8 dereferenceable(536) %subs_rw, ptr noundef nonnull align 8 dereferenceable(976) %2, i1 noundef zeroext false, ptr noundef nonnull align 8 dereferenceable(24) %subs_cfg)
          to label %invoke.cont unwind label %lpad

invoke.cont:                                      ; preds = %entry
  %3 = load ptr, ptr %t.addr, align 8
  %4 = load ptr, ptr %res.addr, align 8
  invoke void @_ZN12rewriter_tplIN6spacer17subs_rewriter_cfgEEclEP4exprR7obj_refIS3_11ast_managerE(ptr noundef nonnull align 8 dereferenceable(536) %subs_rw, ptr noundef %3, ptr noundef nonnull align 8 dereferenceable(16) %4)
          to label %invoke.cont2 unwind label %lpad1

invoke.cont2:                                     ; preds = %invoke.cont
  call void @_ZN12rewriter_tplIN6spacer17subs_rewriter_cfgEED1Ev(ptr noundef nonnull align 8 dereferenceable(536) %subs_rw) #3
  call void @_ZN6spacer17subs_rewriter_cfgD2Ev(ptr noundef nonnull align 8 dereferenceable(24) %subs_cfg) #3
  ret void

lpad:                                             ; preds = %entry
  %5 = landingpad { ptr, i32 }
          cleanup
  %6 = extractvalue { ptr, i32 } %5, 0
  store ptr %6, ptr %exn.slot, align 8
  %7 = extractvalue { ptr, i32 } %5, 1
  store i32 %7, ptr %ehselector.slot, align 4
  br label %ehcleanup

lpad1:                                            ; preds = %invoke.cont
  %8 = landingpad { ptr, i32 }
          cleanup
  %9 = extractvalue { ptr, i32 } %8, 0
  store ptr %9, ptr %exn.slot, align 8
  %10 = extractvalue { ptr, i32 } %8, 1
  store i32 %10, ptr %ehselector.slot, align 4
  call void @_ZN12rewriter_tplIN6spacer17subs_rewriter_cfgEED1Ev(ptr noundef nonnull align 8 dereferenceable(536) %subs_rw) #3
  br label %ehcleanup

ehcleanup:                                        ; preds = %lpad1, %lpad
  call void @_ZN6spacer17subs_rewriter_cfgD2Ev(ptr noundef nonnull align 8 dereferenceable(24) %subs_cfg) #3
  br label %eh.resume

eh.resume:                                        ; preds = %ehcleanup
  %exn = load ptr, ptr %exn.slot, align 8
  %sel = load i32, ptr %ehselector.slot, align 4
  %lpad.val = insertvalue { ptr, i32 } poison, ptr %exn, 0
  %lpad.val3 = insertvalue { ptr, i32 } %lpad.val, i32 %sel, 1
  resume { ptr, i32 } %lpad.val3
}