; Function Attrs: mustprogress uwtable
define hidden void @_ZN6spacer20naive_convex_closure24substitute_vars_by_constER11ast_managerP4exprS4_R7obj_refIS3_S1_E(ptr noundef nonnull align 8 dereferenceable(976) %m, ptr noundef %t, ptr noundef %c, ptr noundef nonnull align 8 dereferenceable(16) %res) local_unnamed_addr #3 align 2 personality ptr @__gxx_personality_v0 {
entry:
  %subs_cfg = alloca %"struct.spacer::subs_rewriter_cfg", align 8
  %subs_rw = alloca %class.rewriter_tpl, align 8
  store ptr %m, ptr %subs_cfg, align 8
  %m_c.i = getelementptr inbounds i8, ptr %subs_cfg, i64 8
  store ptr %c, ptr %m_c.i, align 8
  %m_manager.i.i = getelementptr inbounds i8, ptr %subs_cfg, i64 16
  store ptr %m, ptr %m_manager.i.i, align 8
  %tobool.not.i.i.i = icmp eq ptr %c, null
  br i1 %tobool.not.i.i.i, label %_ZN6spacer17subs_rewriter_cfgC2ER11ast_managerP4expr.exit, label %_ZN11ast_manager7inc_refEP3ast.exit.i.i.i

_ZN11ast_manager7inc_refEP3ast.exit.i.i.i:        ; preds = %entry
  %m_ref_count.i.i.i.i.i = getelementptr inbounds i8, ptr %c, i64 8
  %0 = load i32, ptr %m_ref_count.i.i.i.i.i, align 4
  %inc.i.i.i.i.i = add i32 %0, 1
  store i32 %inc.i.i.i.i.i, ptr %m_ref_count.i.i.i.i.i, align 4
  br label %_ZN6spacer17subs_rewriter_cfgC2ER11ast_managerP4expr.exit

_ZN6spacer17subs_rewriter_cfgC2ER11ast_managerP4expr.exit: ; preds = %entry, %_ZN11ast_manager7inc_refEP3ast.exit.i.i.i
  invoke void @_ZN12rewriter_tplIN6spacer17subs_rewriter_cfgEEC2ER11ast_managerbRS1_(ptr noundef nonnull align 8 dereferenceable(536) %subs_rw, ptr noundef nonnull align 8 dereferenceable(976) %m, i1 noundef zeroext false, ptr noundef nonnull align 8 dereferenceable(24) %subs_cfg)
          to label %invoke.cont unwind label %lpad

invoke.cont:                                      ; preds = %_ZN6spacer17subs_rewriter_cfgC2ER11ast_managerP4expr.exit
  %m_pr.i = getelementptr inbounds i8, ptr %subs_rw, i64 496
  invoke void @_ZN12rewriter_tplIN6spacer17subs_rewriter_cfgEEclEP4exprR7obj_refIS3_11ast_managerERS5_I3appS6_E(ptr noundef nonnull align 8 dereferenceable(536) %subs_rw, ptr noundef %t, ptr noundef nonnull align 8 dereferenceable(16) %res, ptr noundef nonnull align 8 dereferenceable(16) %m_pr.i)
          to label %invoke.cont2 unwind label %lpad1

invoke.cont2:                                     ; preds = %invoke.cont
  call void @_ZN12rewriter_tplIN6spacer17subs_rewriter_cfgEED2Ev(ptr noundef nonnull align 8 dereferenceable(536) %subs_rw) #17
  %1 = load ptr, ptr %m_c.i, align 8
  %tobool.not.i.i.i4 = icmp eq ptr %1, null
  br i1 %tobool.not.i.i.i4, label %_ZN6spacer17subs_rewriter_cfgD2Ev.exit, label %if.then.i.i.i.i

if.then.i.i.i.i:                                  ; preds = %invoke.cont2
  %2 = load ptr, ptr %m_manager.i.i, align 8
  %m_ref_count.i.i.i.i.i5 = getelementptr inbounds i8, ptr %1, i64 8
  %3 = load i32, ptr %m_ref_count.i.i.i.i.i5, align 4
  %dec.i.i.i.i.i = add i32 %3, -1
  store i32 %dec.i.i.i.i.i, ptr %m_ref_count.i.i.i.i.i5, align 4
  %cmp.i.i.i.i = icmp eq i32 %dec.i.i.i.i.i, 0
  br i1 %cmp.i.i.i.i, label %if.then2.i.i.i.i, label %_ZN6spacer17subs_rewriter_cfgD2Ev.exit

if.then2.i.i.i.i:                                 ; preds = %if.then.i.i.i.i
  invoke void @_ZN11ast_manager11delete_nodeEP3ast(ptr noundef nonnull align 8 dereferenceable(976) %2, ptr noundef nonnull %1)
          to label %_ZN6spacer17subs_rewriter_cfgD2Ev.exit unwind label %terminate.lpad.i.i

terminate.lpad.i.i:                               ; preds = %if.then2.i.i.i.i
  %4 = landingpad { ptr, i32 }
          catch ptr null
  %5 = extractvalue { ptr, i32 } %4, 0
  call void @__clang_call_terminate(ptr %5) #18
  unreachable

_ZN6spacer17subs_rewriter_cfgD2Ev.exit:           ; preds = %invoke.cont2, %if.then.i.i.i.i, %if.then2.i.i.i.i
  ret void

lpad:                                             ; preds = %_ZN6spacer17subs_rewriter_cfgC2ER11ast_managerP4expr.exit
  %6 = landingpad { ptr, i32 }
          cleanup
  br label %ehcleanup

lpad1:                                            ; preds = %invoke.cont
  %7 = landingpad { ptr, i32 }
          cleanup
  call void @_ZN12rewriter_tplIN6spacer17subs_rewriter_cfgEED2Ev(ptr noundef nonnull align 8 dereferenceable(536) %subs_rw) #17
  br label %ehcleanup

ehcleanup:                                        ; preds = %lpad1, %lpad
  %.pn = phi { ptr, i32 } [ %7, %lpad1 ], [ %6, %lpad ]
  call void @_ZN6spacer17subs_rewriter_cfgD2Ev(ptr noundef nonnull align 8 dereferenceable(24) %subs_cfg) #17
  resume { ptr, i32 } %.pn
}